target datalayout = "e-m:e-p270:32:32-p271:32:32-p272:64:64-i64:64-i128:128-f80:128-n8:16:32:64-S128"
target triple = "x86_64-pc-linux-gnu"

%struct.dlist_node = type { ptr, ptr }
%struct.PgStat_TableStatus = type { i32, i8, ptr, %struct.PgStat_TableCounts, ptr }
%struct.PgStat_TableCounts = type { i64, i64, i64, i64, i64, i64, i64, i64, i8, i64, i64, i64, i64, i64 }
%struct.PgStat_TableXactStatus = type { i64, i64, i64, i8, i64, i64, i64, i32, ptr, ptr, ptr }
%struct.PgStat_SubXactStatus = type { i32, ptr, %struct.dclist_head, ptr }
%struct.dclist_head = type { %struct.dlist_head, i32 }
%struct.dlist_head = type { %struct.dlist_node }

; Function Attrs: nounwind uwtable
define internal void @restore_truncdrop_counters(ptr noundef %0) #0 {
  %2 = alloca ptr, align 8
  store ptr %0, ptr %2, align 8
  %3 = load ptr, ptr %2, align 8
  %4 = getelementptr inbounds nuw %struct.PgStat_TableXactStatus, ptr %3, i32 0, i32 3
  %5 = load i8, ptr %4, align 8, !range !4, !noundef !5
  %6 = trunc i8 %5 to i1
  br i1 %6, label %7, label %23

7:                                                ; preds = %1
  %8 = load ptr, ptr %2, align 8
  %9 = getelementptr inbounds nuw %struct.PgStat_TableXactStatus, ptr %8, i32 0, i32 4
  %10 = load i64, ptr %9, align 8
  %11 = load ptr, ptr %2, align 8
  %12 = getelementptr inbounds nuw %struct.PgStat_TableXactStatus, ptr %11, i32 0, i32 0
  store i64 %10, ptr %12, align 8
  %13 = load ptr, ptr %2, align 8
  %14 = getelementptr inbounds nuw %struct.PgStat_TableXactStatus, ptr %13, i32 0, i32 5
  %15 = load i64, ptr %14, align 8
  %16 = load ptr, ptr %2, align 8
  %17 = getelementptr inbounds nuw %struct.PgStat_TableXactStatus, ptr %16, i32 0, i32 1
  store i64 %15, ptr %17, align 8
  %18 = load ptr, ptr %2, align 8
  %19 = getelementptr inbounds nuw %struct.PgStat_TableXactStatus, ptr %18, i32 0, i32 6
  %20 = load i64, ptr %19, align 8
  %21 = load ptr, ptr %2, align 8
  %22 = getelementptr inbounds nuw %struct.PgStat_TableXactStatus, ptr %21, i32 0, i32 2
  store i64 %20, ptr %22, align 8
  br label %23

23:                                               ; preds = %7, %1
  ret void
}

; Function Attrs: nounwind uwtable
define internal void @save_truncdrop_counters(ptr noundef %0, i1 noundef zeroext %1) #0 {
  %3 = alloca ptr, align 8
  %4 = alloca i8, align 1
  store ptr %0, ptr %3, align 8
  %5 = zext i1 %1 to i8
  store i8 %5, ptr %4, align 1
  %6 = load ptr, ptr %3, align 8
  %7 = getelementptr inbounds nuw %struct.PgStat_TableXactStatus, ptr %6, i32 0, i32 3
  %8 = load i8, ptr %7, align 8, !range !4, !noundef !5
  %9 = trunc i8 %8 to i1
  br i1 %9, label %10, label %13

10:                                               ; preds = %2
  %11 = load i8, ptr %4, align 1, !range !4, !noundef !5
  %12 = trunc i8 %11 to i1
  br i1 %12, label %13, label %31

13:                                               ; preds = %10, %2
  %14 = load ptr, ptr %3, align 8
  %15 = getelementptr inbounds nuw %struct.PgStat_TableXactStatus, ptr %14, i32 0, i32 0
  %16 = load i64, ptr %15, align 8
  %17 = load ptr, ptr %3, align 8
  %18 = getelementptr inbounds nuw %struct.PgStat_TableXactStatus, ptr %17, i32 0, i32 4
  store i64 %16, ptr %18, align 8
  %19 = load ptr, ptr %3, align 8
  %20 = getelementptr inbounds nuw %struct.PgStat_TableXactStatus, ptr %19, i32 0, i32 1
  %21 = load i64, ptr %20, align 8
  %22 = load ptr, ptr %3, align 8
  %23 = getelementptr inbounds nuw %struct.PgStat_TableXactStatus, ptr %22, i32 0, i32 5
  store i64 %21, ptr %23, align 8
  %24 = load ptr, ptr %3, align 8
  %25 = getelementptr inbounds nuw %struct.PgStat_TableXactStatus, ptr %24, i32 0, i32 2
  %26 = load i64, ptr %25, align 8
  %27 = load ptr, ptr %3, align 8
  %28 = getelementptr inbounds nuw %struct.PgStat_TableXactStatus, ptr %27, i32 0, i32 6
  store i64 %26, ptr %28, align 8
  %29 = load ptr, ptr %3, align 8
  %30 = getelementptr inbounds nuw %struct.PgStat_TableXactStatus, ptr %29, i32 0, i32 3
  store i8 1, ptr %30, align 8
  br label %31

31:                                               ; preds = %13, %10
  ret void
}

; Function Attrs: nounwind uwtable
define dso_local void @AtEOSubXact_PgStat_Relations(ptr noundef %0, i1 noundef zeroext %1, i32 noundef %2) #0 {
  %4 = alloca ptr, align 8
  %5 = alloca i8, align 1
  %6 = alloca i32, align 4
  %7 = alloca ptr, align 8
  %8 = alloca ptr, align 8
  %9 = alloca ptr, align 8
  %10 = alloca ptr, align 8
  store ptr %0, ptr %4, align 8
  %11 = zext i1 %1 to i8
  store i8 %11, ptr %5, align 1
  store i32 %2, ptr %6, align 4
  call void @llvm.lifetime.start.p0(i64 8, ptr %7) #6
  call void @llvm.lifetime.start.p0(i64 8, ptr %8) #6
  %12 = load ptr, ptr %4, align 8
  %13 = getelementptr inbounds nuw %struct.PgStat_SubXactStatus, ptr %12, i32 0, i32 3
  %14 = load ptr, ptr %13, align 8
  store ptr %14, ptr %7, align 8
  br label %15

15:                                               ; preds = %168, %3
  %16 = load ptr, ptr %7, align 8
  %17 = icmp ne ptr %16, null
  br i1 %17, label %18, label %170

18:                                               ; preds = %15
  call void @llvm.lifetime.start.p0(i64 8, ptr %9) #6
  %19 = load ptr, ptr %7, align 8
  %20 = getelementptr inbounds nuw %struct.PgStat_TableXactStatus, ptr %19, i32 0, i32 10
  %21 = load ptr, ptr %20, align 8
  store ptr %21, ptr %8, align 8
  %22 = load ptr, ptr %7, align 8
  %23 = getelementptr inbounds nuw %struct.PgStat_TableXactStatus, ptr %22, i32 0, i32 9
  %24 = load ptr, ptr %23, align 8
  store ptr %24, ptr %9, align 8
  %25 = load i8, ptr %5, align 1, !range !4, !noundef !5
  %26 = trunc i8 %25 to i1
  br i1 %26, label %27, label %123

27:                                               ; preds = %18
  %28 = load ptr, ptr %7, align 8
  %29 = getelementptr inbounds nuw %struct.PgStat_TableXactStatus, ptr %28, i32 0, i32 8
  %30 = load ptr, ptr %29, align 8
  %31 = icmp ne ptr %30, null
  br i1 %31, label %32, label %106

32:                                               ; preds = %27
  %33 = load ptr, ptr %7, align 8
  %34 = getelementptr inbounds nuw %struct.PgStat_TableXactStatus, ptr %33, i32 0, i32 8
  %35 = load ptr, ptr %34, align 8
  %36 = getelementptr inbounds nuw %struct.PgStat_TableXactStatus, ptr %35, i32 0, i32 7
  %37 = load i32, ptr %36, align 8
  %38 = load i32, ptr %6, align 4
  %39 = sub i32 %38, 1
  %40 = icmp eq i32 %37, %39
  br i1 %40, label %41, label %106

41:                                               ; preds = %32
  %42 = load ptr, ptr %7, align 8
  %43 = getelementptr inbounds nuw %struct.PgStat_TableXactStatus, ptr %42, i32 0, i32 3
  %44 = load i8, ptr %43, align 8, !range !4, !noundef !5
  %45 = trunc i8 %44 to i1
  br i1 %45, label %46, label %71

46:                                               ; preds = %41
  %47 = load ptr, ptr %7, align 8
  %48 = getelementptr inbounds nuw %struct.PgStat_TableXactStatus, ptr %47, i32 0, i32 8
  %49 = load ptr, ptr %48, align 8
  call void @save_truncdrop_counters(ptr noundef %49, i1 noundef zeroext false)
  %50 = load ptr, ptr %7, align 8
  %51 = getelementptr inbounds nuw %struct.PgStat_TableXactStatus, ptr %50, i32 0, i32 0
  %52 = load i64, ptr %51, align 8
  %53 = load ptr, ptr %7, align 8
  %54 = getelementptr inbounds nuw %struct.PgStat_TableXactStatus, ptr %53, i32 0, i32 8
  %55 = load ptr, ptr %54, align 8
  %56 = getelementptr inbounds nuw %struct.PgStat_TableXactStatus, ptr %55, i32 0, i32 0
  store i64 %52, ptr %56, align 8
  %57 = load ptr, ptr %7, align 8
  %58 = getelementptr inbounds nuw %struct.PgStat_TableXactStatus, ptr %57, i32 0, i32 1
  %59 = load i64, ptr %58, align 8
  %60 = load ptr, ptr %7, align 8
  %61 = getelementptr inbounds nuw %struct.PgStat_TableXactStatus, ptr %60, i32 0, i32 8
  %62 = load ptr, ptr %61, align 8
  %63 = getelementptr inbounds nuw %struct.PgStat_TableXactStatus, ptr %62, i32 0, i32 1
  store i64 %59, ptr %63, align 8
  %64 = load ptr, ptr %7, align 8
  %65 = getelementptr inbounds nuw %struct.PgStat_TableXactStatus, ptr %64, i32 0, i32 2
  %66 = load i64, ptr %65, align 8
  %67 = load ptr, ptr %7, align 8
  %68 = getelementptr inbounds nuw %struct.PgStat_TableXactStatus, ptr %67, i32 0, i32 8
  %69 = load ptr, ptr %68, align 8
  %70 = getelementptr inbounds nuw %struct.PgStat_TableXactStatus, ptr %69, i32 0, i32 2
  store i64 %66, ptr %70, align 8
  br label %99

71:                                               ; preds = %41
  %72 = load ptr, ptr %7, align 8
  %73 = getelementptr inbounds nuw %struct.PgStat_TableXactStatus, ptr %72, i32 0, i32 0
  %74 = load i64, ptr %73, align 8
  %75 = load ptr, ptr %7, align 8
  %76 = getelementptr inbounds nuw %struct.PgStat_TableXactStatus, ptr %75, i32 0, i32 8
  %77 = load ptr, ptr %76, align 8
  %78 = getelementptr inbounds nuw %struct.PgStat_TableXactStatus, ptr %77, i32 0, i32 0
  %79 = load i64, ptr %78, align 8
  %80 = add i64 %79, %74
  store i64 %80, ptr %78, align 8
  %81 = load ptr, ptr %7, align 8
  %82 = getelementptr inbounds nuw %struct.PgStat_TableXactStatus, ptr %81, i32 0, i32 1
  %83 = load i64, ptr %82, align 8
  %84 = load ptr, ptr %7, align 8
  %85 = getelementptr inbounds nuw %struct.PgStat_TableXactStatus, ptr %84, i32 0, i32 8
  %86 = load ptr, ptr %85, align 8
  %87 = getelementptr inbounds nuw %struct.PgStat_TableXactStatus, ptr %86, i32 0, i32 1
  %88 = load i64, ptr %87, align 8
  %89 = add i64 %88, %83
  store i64 %89, ptr %87, align 8
  %90 = load ptr, ptr %7, align 8
  %91 = getelementptr inbounds nuw %struct.PgStat_TableXactStatus, ptr %90, i32 0, i32 2
  %92 = load i64, ptr %91, align 8
  %93 = load ptr, ptr %7, align 8
  %94 = getelementptr inbounds nuw %struct.PgStat_TableXactStatus, ptr %93, i32 0, i32 8
  %95 = load ptr, ptr %94, align 8
  %96 = getelementptr inbounds nuw %struct.PgStat_TableXactStatus, ptr %95, i32 0, i32 2
  %97 = load i64, ptr %96, align 8
  %98 = add i64 %97, %92
  store i64 %98, ptr %96, align 8
  br label %99

99:                                               ; preds = %71, %46
  %100 = load ptr, ptr %7, align 8
  %101 = getelementptr inbounds nuw %struct.PgStat_TableXactStatus, ptr %100, i32 0, i32 8
  %102 = load ptr, ptr %101, align 8
  %103 = load ptr, ptr %9, align 8
  %104 = getelementptr inbounds nuw %struct.PgStat_TableStatus, ptr %103, i32 0, i32 2
  store ptr %102, ptr %104, align 8
  %105 = load ptr, ptr %7, align 8
  call void @pfree(ptr noundef %105)
  br label %122

106:                                              ; preds = %32, %27
  call void @llvm.lifetime.start.p0(i64 8, ptr %10) #6
  %107 = load i32, ptr %6, align 4
  %108 = sub i32 %107, 1
  %109 = call ptr @pgstat_get_xact_stack_level(i32 noundef %108)
  store ptr %109, ptr %10, align 8
  %110 = load ptr, ptr %10, align 8
  %111 = getelementptr inbounds nuw %struct.PgStat_SubXactStatus, ptr %110, i32 0, i32 3
  %112 = load ptr, ptr %111, align 8
  %113 = load ptr, ptr %7, align 8
  %114 = getelementptr inbounds nuw %struct.PgStat_TableXactStatus, ptr %113, i32 0, i32 10
  store ptr %112, ptr %114, align 8
  %115 = load ptr, ptr %7, align 8
  %116 = load ptr, ptr %10, align 8
  %117 = getelementptr inbounds nuw %struct.PgStat_SubXactStatus, ptr %116, i32 0, i32 3
  store ptr %115, ptr %117, align 8
  %118 = load i32, ptr %6, align 4
  %119 = sub i32 %118, 1
  %120 = load ptr, ptr %7, align 8
  %121 = getelementptr inbounds nuw %struct.PgStat_TableXactStatus, ptr %120, i32 0, i32 7
  store i32 %119, ptr %121, align 8
  call void @llvm.lifetime.end.p0(i64 8, ptr %10) #6
  br label %122

122:                                              ; preds = %106, %99
  br label %167

123:                                              ; preds = %18
  %124 = load ptr, ptr %7, align 8
  call void @restore_truncdrop_counters(ptr noundef %124)
  %125 = load ptr, ptr %7, align 8
  %126 = getelementptr inbounds nuw %struct.PgStat_TableXactStatus, ptr %125, i32 0, i32 0
  %127 = load i64, ptr %126, align 8
  %128 = load ptr, ptr %9, align 8
  %129 = getelementptr inbounds nuw %struct.PgStat_TableStatus, ptr %128, i32 0, i32 3
  %130 = getelementptr inbounds nuw %struct.PgStat_TableCounts, ptr %129, i32 0, i32 3
  %131 = load i64, ptr %130, align 8
  %132 = add i64 %131, %127
  store i64 %132, ptr %130, align 8
  %133 = load ptr, ptr %7, align 8
  %134 = getelementptr inbounds nuw %struct.PgStat_TableXactStatus, ptr %133, i32 0, i32 1
  %135 = load i64, ptr %134, align 8
  %136 = load ptr, ptr %9, align 8
  %137 = getelementptr inbounds nuw %struct.PgStat_TableStatus, ptr %136, i32 0, i32 3
  %138 = getelementptr inbounds nuw %struct.PgStat_TableCounts, ptr %137, i32 0, i32 4
  %139 = load i64, ptr %138, align 8
  %140 = add i64 %139, %135
  store i64 %140, ptr %138, align 8
  %141 = load ptr, ptr %7, align 8
  %142 = getelementptr inbounds nuw %struct.PgStat_TableXactStatus, ptr %141, i32 0, i32 2
  %143 = load i64, ptr %142, align 8
  %144 = load ptr, ptr %9, align 8
  %145 = getelementptr inbounds nuw %struct.PgStat_TableStatus, ptr %144, i32 0, i32 3
  %146 = getelementptr inbounds nuw %struct.PgStat_TableCounts, ptr %145, i32 0, i32 5
  %147 = load i64, ptr %146, align 8
  %148 = add i64 %147, %143
  store i64 %148, ptr %146, align 8
  %149 = load ptr, ptr %7, align 8
  %150 = getelementptr inbounds nuw %struct.PgStat_TableXactStatus, ptr %149, i32 0, i32 0
  %151 = load i64, ptr %150, align 8
  %152 = load ptr, ptr %7, align 8
  %153 = getelementptr inbounds nuw %struct.PgStat_TableXactStatus, ptr %152, i32 0, i32 1
  %154 = load i64, ptr %153, align 8
  %155 = add i64 %151, %154
  %156 = load ptr, ptr %9, align 8
  %157 = getelementptr inbounds nuw %struct.PgStat_TableStatus, ptr %156, i32 0, i32 3
  %158 = getelementptr inbounds nuw %struct.PgStat_TableCounts, ptr %157, i32 0, i32 10
  %159 = load i64, ptr %158, align 8
  %160 = add i64 %159, %155
  store i64 %160, ptr %158, align 8
  %161 = load ptr, ptr %7, align 8
  %162 = getelementptr inbounds nuw %struct.PgStat_TableXactStatus, ptr %161, i32 0, i32 8
  %163 = load ptr, ptr %162, align 8
  %164 = load ptr, ptr %9, align 8
  %165 = getelementptr inbounds nuw %struct.PgStat_TableStatus, ptr %164, i32 0, i32 2
  store ptr %163, ptr %165, align 8
  %166 = load ptr, ptr %7, align 8
  call void @pfree(ptr noundef %166)
  br label %167

167:                                              ; preds = %123, %122
  call void @llvm.lifetime.end.p0(i64 8, ptr %9) #6
  br label %168

168:                                              ; preds = %167
  %169 = load ptr, ptr %8, align 8
  store ptr %169, ptr %7, align 8
  br label %15, !llvm.loop !10

170:                                              ; preds = %15
  call void @llvm.lifetime.end.p0(i64 8, ptr %8) #6
  call void @llvm.lifetime.end.p0(i64 8, ptr %7) #6
  ret void
}