; Function Attrs: nounwind uwtable
define dso_local void @AtEOSubXact_PgStat_Relations(ptr noundef readonly captures(none) %0, i1 noundef zeroext %1, i32 noundef %2) local_unnamed_addr #0 {
  %4 = getelementptr inbounds nuw i8, ptr %0, i64 40
  %5 = load ptr, ptr %4, align 8
  %.not47 = icmp eq ptr %5, null
  br i1 %.not47, label %._crit_edge, label %.lr.ph

.lr.ph:                                           ; preds = %3
  %6 = add i32 %2, -1
  br i1 %1, label %.lr.ph.split.us, label %.lr.ph.split

.lr.ph.split.us:                                  ; preds = %.lr.ph, %68
  %.048.us = phi ptr [ %8, %68 ], [ %5, %.lr.ph ]
  %7 = getelementptr inbounds nuw i8, ptr %.048.us, i64 80
  %8 = load ptr, ptr %7, align 8
  %9 = getelementptr inbounds nuw i8, ptr %.048.us, i64 72
  %10 = load ptr, ptr %9, align 8
  %11 = getelementptr inbounds nuw i8, ptr %.048.us, i64 64
  %12 = load ptr, ptr %11, align 8
  %.not46.us = icmp eq ptr %12, null
  br i1 %.not46.us, label %63, label %13

13:                                               ; preds = %.lr.ph.split.us
  %14 = getelementptr inbounds nuw i8, ptr %12, i64 56
  %15 = load i32, ptr %14, align 8
  %16 = icmp eq i32 %15, %6
  br i1 %16, label %17, label %63

17:                                               ; preds = %13
  %18 = getelementptr inbounds nuw i8, ptr %.048.us, i64 24
  %19 = load i8, ptr %18, align 8, !range !4, !noundef !5
  %20 = trunc nuw i8 %19 to i1
  br i1 %20, label %37, label %21

21:                                               ; preds = %17
  %22 = load i64, ptr %.048.us, align 8
  %23 = load i64, ptr %12, align 8
  %24 = add i64 %23, %22
  store i64 %24, ptr %12, align 8
  %25 = getelementptr inbounds nuw i8, ptr %.048.us, i64 8
  %26 = load i64, ptr %25, align 8
  %27 = load ptr, ptr %11, align 8
  %28 = getelementptr inbounds nuw i8, ptr %27, i64 8
  %29 = load i64, ptr %28, align 8
  %30 = add i64 %29, %26
  store i64 %30, ptr %28, align 8
  %31 = getelementptr inbounds nuw i8, ptr %.048.us, i64 16
  %32 = load i64, ptr %31, align 8
  %33 = load ptr, ptr %11, align 8
  %34 = getelementptr inbounds nuw i8, ptr %33, i64 16
  %35 = load i64, ptr %34, align 8
  %36 = add i64 %35, %32
  store i64 %36, ptr %34, align 8
  br label %60

37:                                               ; preds = %17
  %38 = getelementptr inbounds nuw i8, ptr %12, i64 24
  %39 = load i8, ptr %38, align 8, !range !4, !noundef !5
  %40 = trunc nuw i8 %39 to i1
  br i1 %40, label %save_truncdrop_counters.exit.us, label %41

41:                                               ; preds = %37
  %42 = load i64, ptr %12, align 8
  %43 = getelementptr inbounds nuw i8, ptr %12, i64 32
  store i64 %42, ptr %43, align 8
  %44 = getelementptr inbounds nuw i8, ptr %12, i64 8
  %45 = load i64, ptr %44, align 8
  %46 = getelementptr inbounds nuw i8, ptr %12, i64 40
  store i64 %45, ptr %46, align 8
  %47 = getelementptr inbounds nuw i8, ptr %12, i64 16
  %48 = load i64, ptr %47, align 8
  %49 = getelementptr inbounds nuw i8, ptr %12, i64 48
  store i64 %48, ptr %49, align 8
  store i8 1, ptr %38, align 8
  %.pre50 = load ptr, ptr %11, align 8
  br label %save_truncdrop_counters.exit.us

save_truncdrop_counters.exit.us:                  ; preds = %41, %37
  %50 = phi ptr [ %.pre50, %41 ], [ %12, %37 ]
  %51 = load i64, ptr %.048.us, align 8
  store i64 %51, ptr %50, align 8
  %52 = getelementptr inbounds nuw i8, ptr %.048.us, i64 8
  %53 = load i64, ptr %52, align 8
  %54 = load ptr, ptr %11, align 8
  %55 = getelementptr inbounds nuw i8, ptr %54, i64 8
  store i64 %53, ptr %55, align 8
  %56 = getelementptr inbounds nuw i8, ptr %.048.us, i64 16
  %57 = load i64, ptr %56, align 8
  %58 = load ptr, ptr %11, align 8
  %59 = getelementptr inbounds nuw i8, ptr %58, i64 16
  store i64 %57, ptr %59, align 8
  br label %60

60:                                               ; preds = %save_truncdrop_counters.exit.us, %21
  %61 = load ptr, ptr %11, align 8
  %62 = getelementptr inbounds nuw i8, ptr %10, i64 8
  store ptr %61, ptr %62, align 8
  tail call void @pfree(ptr noundef nonnull %.048.us) #9
  br label %68

63:                                               ; preds = %13, %.lr.ph.split.us
  %64 = tail call ptr @pgstat_get_xact_stack_level(i32 noundef %6) #9
  %65 = getelementptr inbounds nuw i8, ptr %64, i64 40
  %66 = load ptr, ptr %65, align 8
  store ptr %66, ptr %7, align 8
  store ptr %.048.us, ptr %65, align 8
  %67 = getelementptr inbounds nuw i8, ptr %.048.us, i64 56
  store i32 %6, ptr %67, align 8
  br label %68

68:                                               ; preds = %63, %60
  %.not.us = icmp eq ptr %8, null
  br i1 %.not.us, label %._crit_edge, label %.lr.ph.split.us, !llvm.loop !11

.lr.ph.split:                                     ; preds = %.lr.ph, %restore_truncdrop_counters.exit
  %.048 = phi ptr [ %70, %restore_truncdrop_counters.exit ], [ %5, %.lr.ph ]
  %69 = getelementptr inbounds nuw i8, ptr %.048, i64 80
  %70 = load ptr, ptr %69, align 8
  %71 = getelementptr inbounds nuw i8, ptr %.048, i64 72
  %72 = load ptr, ptr %71, align 8
  %73 = getelementptr inbounds nuw i8, ptr %.048, i64 24
  %74 = load i8, ptr %73, align 8, !range !4, !noundef !5
  %75 = trunc nuw i8 %74 to i1
  br i1 %75, label %76, label %.lr.ph.split.restore_truncdrop_counters.exit_crit_edge

.lr.ph.split.restore_truncdrop_counters.exit_crit_edge: ; preds = %.lr.ph.split
  %.pre = load i64, ptr %.048, align 8
  br label %restore_truncdrop_counters.exit

76:                                               ; preds = %.lr.ph.split
  %77 = getelementptr inbounds nuw i8, ptr %.048, i64 32
  %78 = load i64, ptr %77, align 8
  store i64 %78, ptr %.048, align 8
  %79 = getelementptr inbounds nuw i8, ptr %.048, i64 40
  %80 = load i64, ptr %79, align 8
  %81 = getelementptr inbounds nuw i8, ptr %.048, i64 8
  store i64 %80, ptr %81, align 8
  %82 = getelementptr inbounds nuw i8, ptr %.048, i64 48
  %83 = load i64, ptr %82, align 8
  %84 = getelementptr inbounds nuw i8, ptr %.048, i64 16
  store i64 %83, ptr %84, align 8
  br label %restore_truncdrop_counters.exit

restore_truncdrop_counters.exit:                  ; preds = %.lr.ph.split.restore_truncdrop_counters.exit_crit_edge, %76
  %85 = phi i64 [ %.pre, %.lr.ph.split.restore_truncdrop_counters.exit_crit_edge ], [ %78, %76 ]
  %86 = getelementptr inbounds nuw i8, ptr %72, i64 40
  %87 = load i64, ptr %86, align 8
  %88 = add i64 %87, %85
  store i64 %88, ptr %86, align 8
  %89 = getelementptr inbounds nuw i8, ptr %.048, i64 8
  %90 = load i64, ptr %89, align 8
  %91 = getelementptr inbounds nuw i8, ptr %72, i64 48
  %92 = load i64, ptr %91, align 8
  %93 = add i64 %92, %90
  store i64 %93, ptr %91, align 8
  %94 = getelementptr inbounds nuw i8, ptr %.048, i64 16
  %95 = load i64, ptr %94, align 8
  %96 = getelementptr inbounds nuw i8, ptr %72, i64 56
  %97 = load i64, ptr %96, align 8
  %98 = add i64 %97, %95
  store i64 %98, ptr %96, align 8
  %99 = load i64, ptr %.048, align 8
  %100 = load i64, ptr %89, align 8
  %101 = add i64 %100, %99
  %102 = getelementptr inbounds nuw i8, ptr %72, i64 96
  %103 = load i64, ptr %102, align 8
  %104 = add i64 %101, %103
  store i64 %104, ptr %102, align 8
  %105 = getelementptr inbounds nuw i8, ptr %.048, i64 64
  %106 = load ptr, ptr %105, align 8
  %107 = getelementptr inbounds nuw i8, ptr %72, i64 8
  store ptr %106, ptr %107, align 8
  tail call void @pfree(ptr noundef nonnull %.048) #9
  %.not = icmp eq ptr %70, null
  br i1 %.not, label %._crit_edge, label %.lr.ph.split, !llvm.loop !11

._crit_edge:                                      ; preds = %restore_truncdrop_counters.exit, %68, %3
  ret void
}